; ModuleID = '38/825.c'
source_filename = "38/825.c"
target datalayout = "e-m:e-p270:32:32-p271:32:32-p272:64:64-i64:64-f80:128-n8:16:32:64-S128"
target triple = "x86_64-pc-linux-gnu"

@.str = private unnamed_addr constant [3 x i8] c"%d\00", align 1
@.str.1 = private unnamed_addr constant [4 x i8] c"%lf\00", align 1
@.str.2 = private unnamed_addr constant [7 x i8] c"%.5lf\0A\00", align 1

; Function Attrs: noinline nounwind uwtable
define dso_local i32 @main() #0 {
  %1 = alloca i32, align 4
  %2 = alloca i32, align 4
  %3 = alloca [100 x i32], align 16
  %4 = alloca [100 x [1000 x double]], align 16
  %5 = alloca [100 x double], align 16
  %6 = alloca [100 x double], align 16
  %7 = alloca i32, align 4
  %8 = alloca i32, align 4
  store i32 0, i32* %1, align 4
  %9 = bitcast [100 x double]* %5 to i8*
  call void @llvm.memset.p0i8.i64(i8* align 16 %9, i8 0, i64 800, i1 false)
  %10 = bitcast [100 x double]* %6 to i8*
  call void @llvm.memset.p0i8.i64(i8* align 16 %10, i8 0, i64 800, i1 false)
  %11 = call i32 (i8*, ...) @__isoc99_scanf(i8* getelementptr inbounds ([3 x i8], [3 x i8]* @.str, i64 0, i64 0), i32* %2)
  store i32 0, i32* %7, align 4
  br label %12

12:                                               ; preds = %58, %0
  %13 = load i32, i32* %7, align 4
  %14 = load i32, i32* %2, align 4
  %15 = icmp slt i32 %13, %14
  br i1 %15, label %16, label %61

16:                                               ; preds = %12
  %17 = load i32, i32* %7, align 4
  %18 = sext i32 %17 to i64
  %19 = getelementptr inbounds [100 x i32], [100 x i32]* %3, i64 0, i64 %18
  %20 = call i32 (i8*, ...) @__isoc99_scanf(i8* getelementptr inbounds ([3 x i8], [3 x i8]* @.str, i64 0, i64 0), i32* %19)
  store i32 0, i32* %8, align 4
  br label %21

21:                                               ; preds = %54, %16
  %22 = load i32, i32* %8, align 4
  %23 = load i32, i32* %7, align 4
  %24 = sext i32 %23 to i64
  %25 = getelementptr inbounds [100 x i32], [100 x i32]* %3, i64 0, i64 %24
  %26 = load i32, i32* %25, align 4
  %27 = icmp slt i32 %22, %26
  br i1 %27, label %28, label %57

28:                                               ; preds = %21
  %29 = load i32, i32* %7, align 4
  %30 = sext i32 %29 to i64
  %31 = getelementptr inbounds [100 x [1000 x double]], [100 x [1000 x double]]* %4, i64 0, i64 %30
  %32 = load i32, i32* %8, align 4
  %33 = sext i32 %32 to i64
  %34 = getelementptr inbounds [1000 x double], [1000 x double]* %31, i64 0, i64 %33
  %35 = call i32 (i8*, ...) @__isoc99_scanf(i8* getelementptr inbounds ([4 x i8], [4 x i8]* @.str.1, i64 0, i64 0), double* %34)
  %36 = load i32, i32* %7, align 4
  %37 = sext i32 %36 to i64
  %38 = getelementptr inbounds [100 x [1000 x double]], [100 x [1000 x double]]* %4, i64 0, i64 %37
  %39 = load i32, i32* %8, align 4
  %40 = sext i32 %39 to i64
  %41 = getelementptr inbounds [1000 x double], [1000 x double]* %38, i64 0, i64 %40
  %42 = load double, double* %41, align 8
  %43 = load i32, i32* %7, align 4
  %44 = sext i32 %43 to i64
  %45 = getelementptr inbounds [100 x i32], [100 x i32]* %3, i64 0, i64 %44
  %46 = load i32, i32* %45, align 4
  %47 = sitofp i32 %46 to double
  %48 = fdiv double %42, %47
  %49 = load i32, i32* %7, align 4
  %50 = sext i32 %49 to i64
  %51 = getelementptr inbounds [100 x double], [100 x double]* %5, i64 0, i64 %50
  %52 = load double, double* %51, align 8
  %53 = fadd double %52, %48
  store double %53, double* %51, align 8
  br label %54

54:                                               ; preds = %28
  %55 = load i32, i32* %8, align 4
  %56 = add nsw i32 %55, 1
  store i32 %56, i32* %8, align 4
  br label %21

57:                                               ; preds = %21
  br label %58

58:                                               ; preds = %57
  %59 = load i32, i32* %7, align 4
  %60 = add nsw i32 %59, 1
  store i32 %60, i32* %7, align 4
  br label %12

61:                                               ; preds = %12
  store i32 0, i32* %7, align 4
  br label %62

62:                                               ; preds = %109, %61
  %63 = load i32, i32* %7, align 4
  %64 = load i32, i32* %2, align 4
  %65 = icmp slt i32 %63, %64
  br i1 %65, label %66, label %112

66:                                               ; preds = %62
  store i32 0, i32* %8, align 4
  br label %67

67:                                               ; preds = %99, %66
  %68 = load i32, i32* %8, align 4
  %69 = load i32, i32* %7, align 4
  %70 = sext i32 %69 to i64
  %71 = getelementptr inbounds [100 x i32], [100 x i32]* %3, i64 0, i64 %70
  %72 = load i32, i32* %71, align 4
  %73 = icmp slt i32 %68, %72
  br i1 %73, label %74, label %102

74:                                               ; preds = %67
  %75 = load i32, i32* %7, align 4
  %76 = sext i32 %75 to i64
  %77 = getelementptr inbounds [100 x [1000 x double]], [100 x [1000 x double]]* %4, i64 0, i64 %76
  %78 = load i32, i32* %8, align 4
  %79 = sext i32 %78 to i64
  %80 = getelementptr inbounds [1000 x double], [1000 x double]* %77, i64 0, i64 %79
  %81 = load double, double* %80, align 8
  %82 = load i32, i32* %7, align 4
  %83 = sext i32 %82 to i64
  %84 = getelementptr inbounds [100 x double], [100 x double]* %5, i64 0, i64 %83
  %85 = load double, double* %84, align 8
  %86 = fsub double %81, %85
  %87 = call double @pow(double %86, double 2.000000e+00) #4
  %88 = load i32, i32* %7, align 4
  %89 = sext i32 %88 to i64
  %90 = getelementptr inbounds [100 x i32], [100 x i32]* %3, i64 0, i64 %89
  %91 = load i32, i32* %90, align 4
  %92 = sitofp i32 %91 to double
  %93 = fdiv double %87, %92
  %94 = load i32, i32* %7, align 4
  %95 = sext i32 %94 to i64
  %96 = getelementptr inbounds [100 x double], [100 x double]* %6, i64 0, i64 %95
  %97 = load double, double* %96, align 8
  %98 = fadd double %97, %93
  store double %98, double* %96, align 8
  br label %99

99:                                               ; preds = %74
  %100 = load i32, i32* %8, align 4
  %101 = add nsw i32 %100, 1
  store i32 %101, i32* %8, align 4
  br label %67

102:                                              ; preds = %67
  %103 = load i32, i32* %7, align 4
  %104 = sext i32 %103 to i64
  %105 = getelementptr inbounds [100 x double], [100 x double]* %6, i64 0, i64 %104
  %106 = load double, double* %105, align 8
  %107 = call double @sqrt(double %106) #4
  %108 = call i32 (i8*, ...) @printf(i8* getelementptr inbounds ([7 x i8], [7 x i8]* @.str.2, i64 0, i64 0), double %107)
  br label %109

109:                                              ; preds = %102
  %110 = load i32, i32* %7, align 4
  %111 = add nsw i32 %110, 1
  store i32 %111, i32* %7, align 4
  br label %62

112:                                              ; preds = %62
  ret i32 0
}

; Function Attrs: argmemonly nounwind willreturn
declare void @llvm.memset.p0i8.i64(i8* nocapture writeonly, i8, i64, i1 immarg) #1

declare dso_local i32 @__isoc99_scanf(i8*, ...) #2

; Function Attrs: nounwind
declare dso_local double @pow(double, double) #3

declare dso_local i32 @printf(i8*, ...) #2

; Function Attrs: nounwind
declare dso_local double @sqrt(double) #3


!llvm.module.flags = !{!0}
!llvm.ident = !{!1}

!0 = !{i32 1, !"wchar_size", i32 4}
!1 = !{!"clang version 10.0.0-4ubuntu1 "}
